; ModuleID = 'source-C-CXX/3/1397.c'
source_filename = "source-C-CXX/3/1397.c"
target datalayout = "e-m:e-p270:32:32-p271:32:32-p272:64:64-i64:64-f80:128-n8:16:32:64-S128"
target triple = "x86_64-pc-linux-gnu"

@.str = private unnamed_addr constant [6 x i8] c"%d %d\00", align 1
@.str.1 = private unnamed_addr constant [3 x i8] c"%d\00", align 1
@.str.2 = private unnamed_addr constant [4 x i8] c"%d\0A\00", align 1

; Function Attrs: nofree nounwind sspstrong uwtable
define dso_local i32 @main() local_unnamed_addr #0 {
  %1 = alloca i32, align 4
  %2 = alloca i32, align 4
  %3 = alloca [100 x [100 x i32]], align 16
  %4 = bitcast i32* %1 to i8*
  call void @llvm.lifetime.start.p0i8(i64 4, i8* nonnull %4) #3
  %5 = bitcast i32* %2 to i8*
  call void @llvm.lifetime.start.p0i8(i64 4, i8* nonnull %5) #3
  %6 = bitcast [100 x [100 x i32]]* %3 to i8*
  call void @llvm.lifetime.start.p0i8(i64 40000, i8* nonnull %6) #3
  %7 = call i32 (i8*, ...) @__isoc99_scanf(i8* getelementptr inbounds ([6 x i8], [6 x i8]* @.str, i64 0, i64 0), i32* nonnull %1, i32* nonnull %2)
  %8 = load i32, i32* %1, align 4, !tbaa !5
  %9 = icmp sgt i32 %8, 0
  %10 = load i32, i32* %2, align 4, !tbaa !5
  br i1 %9, label %11, label %18

11:                                               ; preds = %0
  %12 = icmp sgt i32 %10, 0
  br i1 %12, label %13, label %45

13:                                               ; preds = %11, %32
  %14 = phi i32 [ %33, %32 ], [ %8, %11 ]
  %15 = phi i32 [ %34, %32 ], [ %10, %11 ]
  %16 = phi i64 [ %35, %32 ], [ 0, %11 ]
  %17 = icmp sgt i32 %15, 0
  br i1 %17, label %22, label %32

18:                                               ; preds = %32, %0
  %19 = phi i32 [ %8, %0 ], [ %33, %32 ]
  %20 = phi i32 [ %10, %0 ], [ %34, %32 ]
  %21 = icmp sgt i32 %20, 0
  br i1 %21, label %38, label %45

22:                                               ; preds = %13, %22
  %23 = phi i64 [ %26, %22 ], [ 0, %13 ]
  %24 = getelementptr inbounds [100 x [100 x i32]], [100 x [100 x i32]]* %3, i64 0, i64 %16, i64 %23
  %25 = call i32 (i8*, ...) @__isoc99_scanf(i8* getelementptr inbounds ([3 x i8], [3 x i8]* @.str.1, i64 0, i64 0), i32* nonnull %24)
  %26 = add nuw nsw i64 %23, 1
  %27 = load i32, i32* %2, align 4, !tbaa !5
  %28 = sext i32 %27 to i64
  %29 = icmp slt i64 %26, %28
  br i1 %29, label %22, label %30, !llvm.loop !9

30:                                               ; preds = %22
  %31 = load i32, i32* %1, align 4, !tbaa !5
  br label %32

32:                                               ; preds = %30, %13
  %33 = phi i32 [ %31, %30 ], [ %14, %13 ]
  %34 = phi i32 [ %27, %30 ], [ %15, %13 ]
  %35 = add nuw nsw i64 %16, 1
  %36 = sext i32 %33 to i64
  %37 = icmp slt i64 %35, %36
  br i1 %37, label %13, label %18, !llvm.loop !11

38:                                               ; preds = %18, %69
  %39 = phi i32 [ %70, %69 ], [ %20, %18 ]
  %40 = phi i32 [ %71, %69 ], [ %19, %18 ]
  %41 = phi i64 [ %72, %69 ], [ 0, %18 ]
  %42 = icmp sgt i32 %40, 0
  br i1 %42, label %43, label %69

43:                                               ; preds = %38
  %44 = trunc i64 %41 to i32
  br label %51

45:                                               ; preds = %69, %11, %18
  %46 = phi i32 [ %20, %18 ], [ %10, %11 ], [ %70, %69 ]
  %47 = phi i32 [ %19, %18 ], [ %8, %11 ], [ %71, %69 ]
  %48 = icmp sgt i32 %47, 1
  %49 = icmp sgt i32 %46, 0
  %50 = select i1 %48, i1 %49, i1 false
  br i1 %50, label %75, label %114

51:                                               ; preds = %43, %51
  %52 = phi i64 [ 0, %43 ], [ %59, %51 ]
  %53 = phi i32 [ %44, %43 ], [ %61, %51 ]
  %54 = phi i32 [ 0, %43 ], [ %60, %51 ]
  %55 = zext i32 %53 to i64
  %56 = getelementptr inbounds [100 x [100 x i32]], [100 x [100 x i32]]* %3, i64 0, i64 %52, i64 %55
  %57 = load i32, i32* %56, align 4, !tbaa !5
  %58 = call i32 (i8*, ...) @printf(i8* nonnull dereferenceable(1) getelementptr inbounds ([4 x i8], [4 x i8]* @.str.2, i64 0, i64 0), i32 %57)
  %59 = add nuw nsw i64 %52, 1
  %60 = add nuw nsw i32 %54, 1
  %61 = sub nsw i32 %44, %60
  %62 = icmp ugt i64 %41, %52
  %63 = load i32, i32* %1, align 4
  %64 = sext i32 %63 to i64
  %65 = icmp slt i64 %59, %64
  %66 = select i1 %62, i1 %65, i1 false
  br i1 %66, label %51, label %67, !llvm.loop !13

67:                                               ; preds = %51
  %68 = load i32, i32* %2, align 4, !tbaa !5
  br label %69

69:                                               ; preds = %67, %38
  %70 = phi i32 [ %68, %67 ], [ %39, %38 ]
  %71 = phi i32 [ %63, %67 ], [ %40, %38 ]
  %72 = add nuw nsw i64 %41, 1
  %73 = sext i32 %70 to i64
  %74 = icmp slt i64 %72, %73
  br i1 %74, label %38, label %45, !llvm.loop !14

75:                                               ; preds = %45, %107
  %76 = phi i32 [ %108, %107 ], [ %47, %45 ]
  %77 = phi i32 [ %109, %107 ], [ %47, %45 ]
  %78 = phi i32 [ %110, %107 ], [ %46, %45 ]
  %79 = phi i64 [ %111, %107 ], [ 1, %45 ]
  %80 = icmp sgt i32 %78, 0
  br i1 %80, label %81, label %107

81:                                               ; preds = %75
  %82 = trunc i64 %79 to i32
  %83 = icmp sgt i32 %77, %82
  br i1 %83, label %84, label %107

84:                                               ; preds = %81, %101
  %85 = phi i64 [ %104, %101 ], [ %79, %81 ]
  %86 = phi i32 [ %102, %101 ], [ 0, %81 ]
  %87 = phi i64 [ %95, %101 ], [ 0, %81 ]
  %88 = phi i32 [ %96, %101 ], [ %78, %81 ]
  %89 = xor i32 %86, -1
  %90 = add i32 %88, %89
  %91 = sext i32 %90 to i64
  %92 = getelementptr inbounds [100 x [100 x i32]], [100 x [100 x i32]]* %3, i64 0, i64 %85, i64 %91
  %93 = load i32, i32* %92, align 4, !tbaa !5
  %94 = call i32 (i8*, ...) @printf(i8* nonnull dereferenceable(1) getelementptr inbounds ([4 x i8], [4 x i8]* @.str.2, i64 0, i64 0), i32 %93)
  %95 = add nuw nsw i64 %87, 1
  %96 = load i32, i32* %2, align 4, !tbaa !5
  %97 = sext i32 %96 to i64
  %98 = icmp slt i64 %95, %97
  br i1 %98, label %101, label %99, !llvm.loop !15

99:                                               ; preds = %84
  %100 = load i32, i32* %1, align 4, !tbaa !5
  br label %107

101:                                              ; preds = %84
  %102 = add nuw nsw i32 %86, 1
  %103 = load i32, i32* %1, align 4, !tbaa !5
  %104 = add nuw nsw i64 %95, %79
  %105 = trunc i64 %104 to i32
  %106 = icmp sgt i32 %103, %105
  br i1 %106, label %84, label %107

107:                                              ; preds = %101, %81, %99, %75
  %108 = phi i32 [ %76, %75 ], [ %100, %99 ], [ %76, %81 ], [ %103, %101 ]
  %109 = phi i32 [ %77, %75 ], [ %100, %99 ], [ %76, %81 ], [ %103, %101 ]
  %110 = phi i32 [ %78, %75 ], [ %96, %99 ], [ %78, %81 ], [ %96, %101 ]
  %111 = add nuw nsw i64 %79, 1
  %112 = sext i32 %109 to i64
  %113 = icmp slt i64 %111, %112
  br i1 %113, label %75, label %114, !llvm.loop !16

114:                                              ; preds = %107, %45
  call void @llvm.lifetime.end.p0i8(i64 40000, i8* nonnull %6) #3
  call void @llvm.lifetime.end.p0i8(i64 4, i8* nonnull %5) #3
  call void @llvm.lifetime.end.p0i8(i64 4, i8* nonnull %4) #3
  ret i32 0
}

; Function Attrs: argmemonly mustprogress nofree nosync nounwind willreturn
declare void @llvm.lifetime.start.p0i8(i64 immarg, i8* nocapture) #1

; Function Attrs: nofree nounwind
declare noundef i32 @__isoc99_scanf(i8* nocapture noundef readonly, ...) local_unnamed_addr #2

; Function Attrs: nofree nounwind
declare noundef i32 @printf(i8* nocapture noundef readonly, ...) local_unnamed_addr #2

; Function Attrs: argmemonly mustprogress nofree nosync nounwind willreturn
declare void @llvm.lifetime.end.p0i8(i64 immarg, i8* nocapture) #1


!llvm.module.flags = !{!0, !1, !2, !3}
!llvm.ident = !{!4}

!0 = !{i32 1, !"wchar_size", i32 4}
!1 = !{i32 7, !"PIC Level", i32 2}
!2 = !{i32 7, !"PIE Level", i32 2}
!3 = !{i32 7, !"uwtable", i32 1}
!4 = !{!"clang version 13.0.0"}
!5 = !{!6, !6, i64 0}
!6 = !{!"int", !7, i64 0}
!7 = !{!"omnipotent char", !8, i64 0}
!8 = !{!"Simple C/C++ TBAA"}
!9 = distinct !{!9, !10}
!10 = !{!"llvm.loop.mustprogress"}
!11 = distinct !{!11, !10, !12}
!12 = !{!"llvm.loop.unswitch.partial.disable"}
!13 = distinct !{!13, !10}
!14 = distinct !{!14, !10}
!15 = distinct !{!15, !10}
!16 = distinct !{!16, !10, !12}
